target datalayout = "e-m:e-p270:32:32-p271:32:32-p272:64:64-i64:64-i128:128-f80:128-n8:16:32:64-S128"
target triple = "x86_64-pc-linux-gnu"

%"class.std::basic_ostream" = type { ptr, %"class.std::basic_ios" }
%"class.std::basic_ios" = type { %"class.std::ios_base", ptr, i8, i8, ptr, ptr, ptr, ptr }
%"class.std::ios_base" = type { ptr, i64, i64, i32, i32, i32, ptr, %"struct.std::ios_base::_Words", [8 x %"struct.std::ios_base::_Words"], i32, ptr, %"class.std::locale" }
%"struct.std::ios_base::_Words" = type { ptr, i64 }
%"class.std::locale" = type { ptr }
%"struct.Moves::moveStatType" = type { i32, i32, i32, i32 }
%"struct.Moves::moveStatsType" = type { i32, [13 x %"struct.Moves::moveStatType"] }

@_ZSt4cout = external global %"class.std::basic_ostream", align 8
@.str.17 = private unnamed_addr constant [2 x i8] c"\0A\00", align 1
@.str.26 = private unnamed_addr constant [19 x i8] c"Shouldn't happen, \00", align 1
@.str.27 = private unnamed_addr constant [2 x i8] c" \00", align 1

; Function Attrs: mustprogress uwtable
define void @_ZNK5Moves16UpdateStatsEntryERNS_13moveStatsTypeEiii(ptr noundef nonnull align 8 dereferenceable(39992) %0, ptr noundef nonnull align 4 dereferenceable(212) %1, i32 noundef %2, i32 noundef %3, i32 noundef %4) #4 align 2 {
  %6 = alloca ptr, align 8
  %7 = alloca ptr, align 8
  %8 = alloca i32, align 4
  %9 = alloca i32, align 4
  %10 = alloca i32, align 4
  %11 = alloca i8, align 1
  %12 = alloca i32, align 4
  %13 = alloca i32, align 4
  %14 = alloca ptr, align 8
  %15 = alloca i32, align 4
  store ptr %0, ptr %6, align 8
  store ptr %1, ptr %7, align 8
  store i32 %2, ptr %8, align 4
  store i32 %3, ptr %9, align 4
  store i32 %4, ptr %10, align 4
  store i8 0, ptr %11, align 1
  store i32 0, ptr %12, align 4
  store i32 0, ptr %13, align 4
  br label %16

16:                                               ; preds = %35, %5
  %17 = load i32, ptr %13, align 4
  %18 = load ptr, ptr %7, align 8
  %19 = getelementptr inbounds nuw %"struct.Moves::moveStatsType", ptr %18, i32 0, i32 0
  %20 = load i32, ptr %19, align 4
  %21 = icmp slt i32 %17, %20
  br i1 %21, label %22, label %38

22:                                               ; preds = %16
  %23 = load ptr, ptr %7, align 8
  %24 = getelementptr inbounds nuw %"struct.Moves::moveStatsType", ptr %23, i32 0, i32 1
  %25 = load i32, ptr %13, align 4
  %26 = sext i32 %25 to i64
  %27 = getelementptr inbounds [13 x %"struct.Moves::moveStatType"], ptr %24, i64 0, i64 %26
  %28 = getelementptr inbounds nuw %"struct.Moves::moveStatType", ptr %27, i32 0, i32 1
  %29 = load i32, ptr %28, align 4
  %30 = load i32, ptr %8, align 4
  %31 = icmp eq i32 %29, %30
  br i1 %31, label %32, label %34

32:                                               ; preds = %22
  store i8 1, ptr %11, align 1
  %33 = load i32, ptr %13, align 4
  store i32 %33, ptr %12, align 4
  br label %38

34:                                               ; preds = %22
  br label %35

35:                                               ; preds = %34
  %36 = load i32, ptr %13, align 4
  %37 = add nsw i32 %36, 1
  store i32 %37, ptr %13, align 4
  br label %16, !llvm.loop !88

38:                                               ; preds = %32, %16
  %39 = load i8, ptr %11, align 1
  %40 = trunc i8 %39 to i1
  br i1 %40, label %41, label %61

41:                                               ; preds = %38
  %42 = load ptr, ptr %7, align 8
  %43 = getelementptr inbounds nuw %"struct.Moves::moveStatsType", ptr %42, i32 0, i32 1
  %44 = load i32, ptr %12, align 4
  %45 = sext i32 %44 to i64
  %46 = getelementptr inbounds [13 x %"struct.Moves::moveStatType"], ptr %43, i64 0, i64 %45
  store ptr %46, ptr %14, align 8
  %47 = load ptr, ptr %14, align 8
  %48 = getelementptr inbounds nuw %"struct.Moves::moveStatType", ptr %47, i32 0, i32 0
  %49 = load i32, ptr %48, align 4
  %50 = add nsw i32 %49, 1
  store i32 %50, ptr %48, align 4
  %51 = load i32, ptr %9, align 4
  %52 = load ptr, ptr %14, align 8
  %53 = getelementptr inbounds nuw %"struct.Moves::moveStatType", ptr %52, i32 0, i32 2
  %54 = load i32, ptr %53, align 4
  %55 = add nsw i32 %54, %51
  store i32 %55, ptr %53, align 4
  %56 = load i32, ptr %10, align 4
  %57 = load ptr, ptr %14, align 8
  %58 = getelementptr inbounds nuw %"struct.Moves::moveStatType", ptr %57, i32 0, i32 3
  %59 = load i32, ptr %58, align 4
  %60 = add nsw i32 %59, %56
  store i32 %60, ptr %58, align 4
  br label %122

61:                                               ; preds = %38
  %62 = load ptr, ptr %7, align 8
  %63 = getelementptr inbounds nuw %"struct.Moves::moveStatsType", ptr %62, i32 0, i32 0
  %64 = load i32, ptr %63, align 4
  %65 = icmp sge i32 %64, 13
  br i1 %65, label %66, label %96

66:                                               ; preds = %61
  %67 = call noundef nonnull align 8 dereferenceable(8) ptr @_ZStlsISt11char_traitsIcEERSt13basic_ostreamIcT_ES5_PKc(ptr noundef nonnull align 8 dereferenceable(8) @_ZSt4cout, ptr noundef @.str.26)
  %68 = load ptr, ptr %7, align 8
  %69 = getelementptr inbounds nuw %"struct.Moves::moveStatsType", ptr %68, i32 0, i32 0
  %70 = load i32, ptr %69, align 4
  %71 = call noundef nonnull align 8 dereferenceable(8) ptr @_ZNSolsEi(ptr noundef nonnull align 8 dereferenceable(8) %67, i32 noundef %70)
  %72 = call noundef nonnull align 8 dereferenceable(8) ptr @_ZNSolsEPFRSoS_E(ptr noundef nonnull align 8 dereferenceable(8) %71, ptr noundef @_ZSt4endlIcSt11char_traitsIcEERSt13basic_ostreamIT_T0_ES6_)
  store i32 0, ptr %15, align 4
  br label %73

73:                                               ; preds = %92, %66
  %74 = load i32, ptr %15, align 4
  %75 = load ptr, ptr %7, align 8
  %76 = getelementptr inbounds nuw %"struct.Moves::moveStatsType", ptr %75, i32 0, i32 0
  %77 = load i32, ptr %76, align 4
  %78 = icmp slt i32 %74, %77
  br i1 %78, label %79, label %95

79:                                               ; preds = %73
  %80 = load i32, ptr %15, align 4
  %81 = call noundef nonnull align 8 dereferenceable(8) ptr @_ZNSolsEi(ptr noundef nonnull align 8 dereferenceable(8) @_ZSt4cout, i32 noundef %80)
  %82 = call noundef nonnull align 8 dereferenceable(8) ptr @_ZStlsISt11char_traitsIcEERSt13basic_ostreamIcT_ES5_PKc(ptr noundef nonnull align 8 dereferenceable(8) %81, ptr noundef @.str.27)
  %83 = load ptr, ptr %7, align 8
  %84 = getelementptr inbounds nuw %"struct.Moves::moveStatsType", ptr %83, i32 0, i32 1
  %85 = load i32, ptr %15, align 4
  %86 = sext i32 %85 to i64
  %87 = getelementptr inbounds [13 x %"struct.Moves::moveStatType"], ptr %84, i64 0, i64 %86
  %88 = getelementptr inbounds nuw %"struct.Moves::moveStatType", ptr %87, i32 0, i32 1
  %89 = load i32, ptr %88, align 4
  %90 = call noundef nonnull align 8 dereferenceable(8) ptr @_ZNSolsEi(ptr noundef nonnull align 8 dereferenceable(8) %82, i32 noundef %89)
  %91 = call noundef nonnull align 8 dereferenceable(8) ptr @_ZStlsISt11char_traitsIcEERSt13basic_ostreamIcT_ES5_PKc(ptr noundef nonnull align 8 dereferenceable(8) %90, ptr noundef @.str.17)
  br label %92

92:                                               ; preds = %79
  %93 = load i32, ptr %15, align 4
  %94 = add nsw i32 %93, 1
  store i32 %94, ptr %15, align 4
  br label %73, !llvm.loop !89

95:                                               ; preds = %73
  call void @exit(i32 noundef 1) #11
  unreachable

96:                                               ; preds = %61
  %97 = load ptr, ptr %7, align 8
  %98 = getelementptr inbounds nuw %"struct.Moves::moveStatsType", ptr %97, i32 0, i32 1
  %99 = load ptr, ptr %7, align 8
  %100 = getelementptr inbounds nuw %"struct.Moves::moveStatsType", ptr %99, i32 0, i32 0
  %101 = load i32, ptr %100, align 4
  %102 = add nsw i32 %101, 1
  store i32 %102, ptr %100, align 4
  %103 = sext i32 %101 to i64
  %104 = getelementptr inbounds [13 x %"struct.Moves::moveStatType"], ptr %98, i64 0, i64 %103
  store ptr %104, ptr %14, align 8
  %105 = load ptr, ptr %14, align 8
  %106 = getelementptr inbounds nuw %"struct.Moves::moveStatType", ptr %105, i32 0, i32 0
  %107 = load i32, ptr %106, align 4
  %108 = add nsw i32 %107, 1
  store i32 %108, ptr %106, align 4
  %109 = load i32, ptr %8, align 4
  %110 = load ptr, ptr %14, align 8
  %111 = getelementptr inbounds nuw %"struct.Moves::moveStatType", ptr %110, i32 0, i32 1
  store i32 %109, ptr %111, align 4
  %112 = load i32, ptr %9, align 4
  %113 = load ptr, ptr %14, align 8
  %114 = getelementptr inbounds nuw %"struct.Moves::moveStatType", ptr %113, i32 0, i32 2
  %115 = load i32, ptr %114, align 4
  %116 = add nsw i32 %115, %112
  store i32 %116, ptr %114, align 4
  %117 = load i32, ptr %10, align 4
  %118 = load ptr, ptr %14, align 8
  %119 = getelementptr inbounds nuw %"struct.Moves::moveStatType", ptr %118, i32 0, i32 3
  %120 = load i32, ptr %119, align 4
  %121 = add nsw i32 %120, %117
  store i32 %121, ptr %119, align 4
  br label %122

122:                                              ; preds = %96, %41
  ret void
}