; Function Attrs: mustprogress uwtable
define void @_ZNK5Moves16UpdateStatsEntryERNS_13moveStatsTypeEiii(ptr nocapture nonnull readnone align 8 %0, ptr nocapture noundef nonnull align 4 dereferenceable(212) %1, i32 noundef %2, i32 noundef %3, i32 noundef %4) local_unnamed_addr #3 align 2 {
  %6 = load i32, ptr %1, align 4
  %7 = icmp sgt i32 %6, 0
  br i1 %7, label %.lr.ph, label %._crit_edge.thread

.lr.ph:                                           ; preds = %5
  %8 = getelementptr inbounds nuw i8, ptr %1, i64 4
  %wide.trip.count = zext nneg i32 %6 to i64
  br label %10

9:                                                ; preds = %10
  %indvars.iv.next = add nuw nsw i64 %indvars.iv, 1
  %exitcond.not = icmp eq i64 %indvars.iv.next, %wide.trip.count
  br i1 %exitcond.not, label %._crit_edge, label %10, !llvm.loop !98

10:                                               ; preds = %.lr.ph, %9
  %indvars.iv = phi i64 [ 0, %.lr.ph ], [ %indvars.iv.next, %9 ]
  %11 = getelementptr inbounds [13 x %"struct.Moves::moveStatType"], ptr %8, i64 0, i64 %indvars.iv, i32 1
  %12 = load i32, ptr %11, align 4
  %13 = icmp eq i32 %12, %2
  br i1 %13, label %14, label %9

14:                                               ; preds = %10
  %15 = getelementptr inbounds [13 x %"struct.Moves::moveStatType"], ptr %8, i64 0, i64 %indvars.iv
  %16 = load i32, ptr %15, align 4
  %17 = add nsw i32 %16, 1
  store i32 %17, ptr %15, align 4
  br label %45

._crit_edge:                                      ; preds = %9
  %18 = icmp sgt i32 %6, 12
  br i1 %18, label %19, label %._crit_edge.thread

19:                                               ; preds = %._crit_edge
  %20 = tail call noundef nonnull align 8 dereferenceable(8) ptr @_ZStlsISt11char_traitsIcEERSt13basic_ostreamIcT_ES5_PKc(ptr noundef nonnull align 8 dereferenceable(8) @_ZSt4cout, ptr noundef nonnull @.str.26)
  %21 = load i32, ptr %1, align 4
  %22 = tail call noundef nonnull align 8 dereferenceable(8) ptr @_ZNSolsEi(ptr noundef nonnull align 8 dereferenceable(8) %20, i32 noundef %21)
  %23 = tail call noundef nonnull align 8 dereferenceable(8) ptr @_ZNSolsEPFRSoS_E(ptr noundef nonnull align 8 dereferenceable(8) %22, ptr noundef nonnull @_ZSt4endlIcSt11char_traitsIcEERSt13basic_ostreamIT_T0_ES6_)
  %24 = load i32, ptr %1, align 4
  %25 = icmp sgt i32 %24, 0
  br i1 %25, label %.lr.ph42, label %._crit_edge43

.lr.ph42:                                         ; preds = %19
  %26 = getelementptr inbounds nuw i8, ptr %1, i64 4
  br label %27

27:                                               ; preds = %.lr.ph42, %27
  %indvars.iv46 = phi i64 [ 0, %.lr.ph42 ], [ %indvars.iv.next47, %27 ]
  %28 = trunc nuw nsw i64 %indvars.iv46 to i32
  %29 = tail call noundef nonnull align 8 dereferenceable(8) ptr @_ZNSolsEi(ptr noundef nonnull align 8 dereferenceable(8) @_ZSt4cout, i32 noundef %28)
  %30 = tail call noundef nonnull align 8 dereferenceable(8) ptr @_ZStlsISt11char_traitsIcEERSt13basic_ostreamIcT_ES5_PKc(ptr noundef nonnull align 8 dereferenceable(8) %29, ptr noundef nonnull @.str.27)
  %31 = getelementptr inbounds [13 x %"struct.Moves::moveStatType"], ptr %26, i64 0, i64 %indvars.iv46, i32 1
  %32 = load i32, ptr %31, align 4
  %33 = tail call noundef nonnull align 8 dereferenceable(8) ptr @_ZNSolsEi(ptr noundef nonnull align 8 dereferenceable(8) %30, i32 noundef %32)
  %34 = tail call noundef nonnull align 8 dereferenceable(8) ptr @_ZStlsISt11char_traitsIcEERSt13basic_ostreamIcT_ES5_PKc(ptr noundef nonnull align 8 dereferenceable(8) %33, ptr noundef nonnull @.str.17)
  %indvars.iv.next47 = add nuw nsw i64 %indvars.iv46, 1
  %35 = load i32, ptr %1, align 4
  %36 = sext i32 %35 to i64
  %37 = icmp slt i64 %indvars.iv.next47, %36
  br i1 %37, label %27, label %._crit_edge43, !llvm.loop !99

._crit_edge43:                                    ; preds = %27, %19
  tail call void @exit(i32 noundef 1) #22
  unreachable

._crit_edge.thread:                               ; preds = %5, %._crit_edge
  %38 = getelementptr inbounds nuw i8, ptr %1, i64 4
  %39 = add nsw i32 %6, 1
  store i32 %39, ptr %1, align 4
  %40 = sext i32 %6 to i64
  %41 = getelementptr inbounds [13 x %"struct.Moves::moveStatType"], ptr %38, i64 0, i64 %40
  %42 = load i32, ptr %41, align 4
  %43 = add nsw i32 %42, 1
  store i32 %43, ptr %41, align 4
  %44 = getelementptr inbounds nuw i8, ptr %41, i64 4
  store i32 %2, ptr %44, align 4
  br label %45

45:                                               ; preds = %._crit_edge.thread, %14
  %.sink55 = phi ptr [ %41, %._crit_edge.thread ], [ %15, %14 ]
  %46 = getelementptr inbounds nuw i8, ptr %.sink55, i64 8
  %47 = load i32, ptr %46, align 4
  %48 = add nsw i32 %47, %3
  store i32 %48, ptr %46, align 4
  %49 = getelementptr inbounds nuw i8, ptr %.sink55, i64 12
  %50 = load i32, ptr %49, align 4
  %51 = add nsw i32 %50, %4
  store i32 %51, ptr %49, align 4
  ret void
}